target datalayout = "e-m:e-p270:32:32-p271:32:32-p272:64:64-i64:64-i128:128-f80:128-n8:16:32:64-S128"
target triple = "x86_64-pc-linux-gnu"

%struct.AVFilterContext = type { ptr, ptr, ptr, ptr, ptr, i32, ptr, ptr, i32, ptr, ptr, i32, i32, ptr, ptr, ptr, ptr, i32, ptr, i32, i32 }

; Function Attrs: nounwind uwtable
define internal i32 @insert_filter(ptr noundef %0, ptr noundef %1, ptr noundef %2, ptr noundef %3) #0 {
  %5 = alloca i32, align 4
  %6 = alloca ptr, align 8
  %7 = alloca ptr, align 8
  %8 = alloca ptr, align 8
  %9 = alloca ptr, align 8
  %10 = alloca ptr, align 8
  %11 = alloca ptr, align 8
  %12 = alloca ptr, align 8
  %13 = alloca i32, align 4
  %14 = alloca i32, align 4
  store ptr %0, ptr %6, align 8, !tbaa !419
  store ptr %1, ptr %7, align 8, !tbaa !283
  store ptr %2, ptr %8, align 8, !tbaa !132
  store ptr %3, ptr %9, align 8, !tbaa !132
  call void @llvm.lifetime.start.p0(i64 8, ptr %10) #14
  %15 = load ptr, ptr %6, align 8, !tbaa !419
  %16 = load ptr, ptr %15, align 8, !tbaa !147
  %17 = getelementptr inbounds nuw %struct.AVFilterContext, ptr %16, i32 0, i32 10
  %18 = load ptr, ptr %17, align 8, !tbaa !420
  store ptr %18, ptr %10, align 8, !tbaa !140
  call void @llvm.lifetime.start.p0(i64 8, ptr %11) #14
  %19 = load ptr, ptr %8, align 8, !tbaa !132
  %20 = call ptr @avfilter_get_by_name(ptr noundef %19)
  store ptr %20, ptr %11, align 8, !tbaa !155
  call void @llvm.lifetime.start.p0(i64 8, ptr %12) #14
  call void @llvm.lifetime.start.p0(i64 4, ptr %13) #14
  %21 = load ptr, ptr %11, align 8, !tbaa !155
  %22 = icmp ne ptr %21, null
  br i1 %22, label %24, label %23

23:                                               ; preds = %4
  store i32 -558323010, ptr %5, align 4
  store i32 1, ptr %14, align 4
  br label %49

24:                                               ; preds = %4
  %25 = load ptr, ptr %11, align 8, !tbaa !155
  %26 = load ptr, ptr %8, align 8, !tbaa !132
  %27 = load ptr, ptr %9, align 8, !tbaa !132
  %28 = load ptr, ptr %10, align 8, !tbaa !140
  %29 = call i32 @avfilter_graph_create_filter(ptr noundef %12, ptr noundef %25, ptr noundef %26, ptr noundef %27, ptr noundef null, ptr noundef %28)
  store i32 %29, ptr %13, align 4, !tbaa !9
  %30 = load i32, ptr %13, align 4, !tbaa !9
  %31 = icmp slt i32 %30, 0
  br i1 %31, label %32, label %34

32:                                               ; preds = %24
  %33 = load i32, ptr %13, align 4, !tbaa !9
  store i32 %33, ptr %5, align 4
  store i32 1, ptr %14, align 4
  br label %49

34:                                               ; preds = %24
  %35 = load ptr, ptr %6, align 8, !tbaa !419
  %36 = load ptr, ptr %35, align 8, !tbaa !147
  %37 = load ptr, ptr %7, align 8, !tbaa !283
  %38 = load i32, ptr %37, align 4, !tbaa !9
  %39 = load ptr, ptr %12, align 8, !tbaa !147
  %40 = call i32 @avfilter_link(ptr noundef %36, i32 noundef %38, ptr noundef %39, i32 noundef 0)
  store i32 %40, ptr %13, align 4, !tbaa !9
  %41 = load i32, ptr %13, align 4, !tbaa !9
  %42 = icmp slt i32 %41, 0
  br i1 %42, label %43, label %45

43:                                               ; preds = %34
  %44 = load i32, ptr %13, align 4, !tbaa !9
  store i32 %44, ptr %5, align 4
  store i32 1, ptr %14, align 4
  br label %49

45:                                               ; preds = %34
  %46 = load ptr, ptr %12, align 8, !tbaa !147
  %47 = load ptr, ptr %6, align 8, !tbaa !419
  store ptr %46, ptr %47, align 8, !tbaa !147
  %48 = load ptr, ptr %7, align 8, !tbaa !283
  store i32 0, ptr %48, align 4, !tbaa !9
  store i32 0, ptr %5, align 4
  store i32 1, ptr %14, align 4
  br label %49

49:                                               ; preds = %45, %43, %32, %23
  call void @llvm.lifetime.end.p0(i64 4, ptr %13) #14
  call void @llvm.lifetime.end.p0(i64 8, ptr %12) #14
  call void @llvm.lifetime.end.p0(i64 8, ptr %11) #14
  call void @llvm.lifetime.end.p0(i64 8, ptr %10) #14
  %50 = load i32, ptr %5, align 4
  ret i32 %50
}