; Function Attrs: nounwind uwtable
define internal fastcc range(i32 -2147483648, 1) i32 @insert_filter(ptr noundef nonnull captures(none) %0, ptr noundef nonnull captures(none) %1, ptr noundef %2, ptr noundef %3) unnamed_addr #0 {
  %5 = alloca ptr, align 8
  %6 = load ptr, ptr %0, align 8, !tbaa !133
  %7 = getelementptr inbounds nuw i8, ptr %6, i64 80
  %8 = load ptr, ptr %7, align 8, !tbaa !352
  %9 = tail call ptr @avfilter_get_by_name(ptr noundef %2) #17
  call void @llvm.lifetime.start.p0(i64 8, ptr nonnull %5) #17
  %.not = icmp eq ptr %9, null
  br i1 %.not, label %21, label %10

10:                                               ; preds = %4
  %11 = call i32 @avfilter_graph_create_filter(ptr noundef nonnull %5, ptr noundef nonnull %9, ptr noundef %2, ptr noundef %3, ptr noundef null, ptr noundef %8) #17
  %12 = icmp slt i32 %11, 0
  br i1 %12, label %21, label %13

13:                                               ; preds = %10
  %14 = load ptr, ptr %0, align 8, !tbaa !133
  %15 = load i32, ptr %1, align 4, !tbaa !118
  %16 = load ptr, ptr %5, align 8, !tbaa !133
  %17 = call i32 @avfilter_link(ptr noundef %14, i32 noundef %15, ptr noundef %16, i32 noundef 0) #17
  %18 = icmp slt i32 %17, 0
  br i1 %18, label %21, label %19

19:                                               ; preds = %13
  %20 = load ptr, ptr %5, align 8, !tbaa !133
  store ptr %20, ptr %0, align 8, !tbaa !133
  store i32 0, ptr %1, align 4, !tbaa !118
  br label %21

21:                                               ; preds = %13, %10, %4, %19
  %.0 = phi i32 [ 0, %19 ], [ -558323010, %4 ], [ %11, %10 ], [ %17, %13 ]
  call void @llvm.lifetime.end.p0(i64 8, ptr nonnull %5) #17
  ret i32 %.0
}